; Function Attrs: mustprogress uwtable
define void @_ZN4cvc58internal12SolverEngine13getSepNilExprEv(ptr dead_on_unwind noalias writable writeonly sret(%"class.cvc5::internal::NodeTemplate") align 8 captures(none) initializes((0, 8)) %0, ptr noundef nonnull readonly align 8 captures(none) dereferenceable(296) %1) local_unnamed_addr #4 align 2 personality ptr @__gxx_personality_v0 {
  %3 = alloca %"struct.std::pair.1219", align 8
  call void @llvm.lifetime.start.p0(i64 16, ptr nonnull %3) #32
  call void @_ZN4cvc58internal12SolverEngine20getSepHeapAndNilExprEv(ptr dead_on_unwind nonnull writable sret(%"struct.std::pair.1219") align 8 %3, ptr noundef nonnull align 8 dereferenceable(296) %1)
  %4 = getelementptr inbounds nuw i8, ptr %3, i64 8
  %5 = load ptr, ptr %4, align 8, !tbaa !533
  store ptr %5, ptr %0, align 8, !tbaa !533
  %6 = load i64, ptr %5, align 8
  %7 = lshr i64 %6, 40
  %8 = trunc nuw nsw i64 %7 to i32
  %9 = and i32 %8, 1048575
  %10 = icmp samesign ult i32 %9, 1048574
  br i1 %10, label %11, label %16, !prof !551

11:                                               ; preds = %2
  %12 = add i64 %6, 1099511627776
  %13 = and i64 %12, 1152920405095219200
  %14 = and i64 %6, -1152920405095219201
  %15 = or disjoint i64 %13, %14
  store i64 %15, ptr %5, align 8
  br label %_ZN4cvc58internal12NodeTemplateILb1EEC2ERKS2_.exit

16:                                               ; preds = %2
  %17 = icmp eq i32 %9, 1048574
  br i1 %17, label %18, label %_ZN4cvc58internal12NodeTemplateILb1EEC2ERKS2_.exit, !prof !412

18:                                               ; preds = %16
  %19 = or i64 %6, 1152920405095219200
  store i64 %19, ptr %5, align 8
  invoke void @_ZN4cvc58internal4expr9NodeValue20markRefCountMaxedOutEv(ptr noundef nonnull align 8 dereferenceable(24) %5)
          to label %_ZN4cvc58internal12NodeTemplateILb1EEC2ERKS2_.exit unwind label %46

_ZN4cvc58internal12NodeTemplateILb1EEC2ERKS2_.exit: ; preds = %16, %11, %18
  %20 = load ptr, ptr %4, align 8, !tbaa !533
  %21 = load i64, ptr %20, align 8
  %22 = and i64 %21, 1152920405095219200
  %.not.i.i.i = icmp eq i64 %22, 1152920405095219200
  br i1 %.not.i.i.i, label %_ZN4cvc58internal12NodeTemplateILb1EED2Ev.exit.i, label %23, !prof !412

23:                                               ; preds = %_ZN4cvc58internal12NodeTemplateILb1EEC2ERKS2_.exit
  %24 = add i64 %21, 1152920405095219200
  %25 = and i64 %24, 1152920405095219200
  %26 = and i64 %21, -1152920405095219201
  %27 = or disjoint i64 %25, %26
  store i64 %27, ptr %20, align 8
  %28 = icmp eq i64 %25, 0
  br i1 %28, label %29, label %_ZN4cvc58internal12NodeTemplateILb1EED2Ev.exit.i, !prof !412

29:                                               ; preds = %23
  invoke void @_ZN4cvc58internal4expr9NodeValue15markForDeletionEv(ptr noundef nonnull align 8 dereferenceable(24) %20)
          to label %_ZN4cvc58internal12NodeTemplateILb1EED2Ev.exit.i unwind label %30

30:                                               ; preds = %29
  %31 = landingpad { ptr, i32 }
          catch ptr null
  %32 = extractvalue { ptr, i32 } %31, 0
  call void @__clang_call_terminate(ptr %32) #35
  unreachable

_ZN4cvc58internal12NodeTemplateILb1EED2Ev.exit.i: ; preds = %29, %23, %_ZN4cvc58internal12NodeTemplateILb1EEC2ERKS2_.exit
  %33 = load ptr, ptr %3, align 8, !tbaa !533
  %34 = load i64, ptr %33, align 8
  %35 = and i64 %34, 1152920405095219200
  %.not.i.i1.i = icmp eq i64 %35, 1152920405095219200
  br i1 %.not.i.i1.i, label %_ZNSt4pairIN4cvc58internal12NodeTemplateILb1EEES3_ED2Ev.exit, label %36, !prof !412

36:                                               ; preds = %_ZN4cvc58internal12NodeTemplateILb1EED2Ev.exit.i
  %37 = add i64 %34, 1152920405095219200
  %38 = and i64 %37, 1152920405095219200
  %39 = and i64 %34, -1152920405095219201
  %40 = or disjoint i64 %38, %39
  store i64 %40, ptr %33, align 8
  %41 = icmp eq i64 %38, 0
  br i1 %41, label %42, label %_ZNSt4pairIN4cvc58internal12NodeTemplateILb1EEES3_ED2Ev.exit, !prof !412

42:                                               ; preds = %36
  invoke void @_ZN4cvc58internal4expr9NodeValue15markForDeletionEv(ptr noundef nonnull align 8 dereferenceable(24) %33)
          to label %_ZNSt4pairIN4cvc58internal12NodeTemplateILb1EEES3_ED2Ev.exit unwind label %43

43:                                               ; preds = %42
  %44 = landingpad { ptr, i32 }
          catch ptr null
  %45 = extractvalue { ptr, i32 } %44, 0
  call void @__clang_call_terminate(ptr %45) #35
  unreachable

_ZNSt4pairIN4cvc58internal12NodeTemplateILb1EEES3_ED2Ev.exit: ; preds = %_ZN4cvc58internal12NodeTemplateILb1EED2Ev.exit.i, %36, %42
  call void @llvm.lifetime.end.p0(i64 16, ptr nonnull %3) #32
  ret void

46:                                               ; preds = %18
  %47 = landingpad { ptr, i32 }
          cleanup
  call void @_ZNSt4pairIN4cvc58internal12NodeTemplateILb1EEES3_ED2Ev(ptr noundef nonnull align 8 dereferenceable(16) %3) #32
  call void @llvm.lifetime.end.p0(i64 16, ptr nonnull %3) #32
  resume { ptr, i32 } %47
}